Certificate:
    Data:
        Version: 3 (0x2)
        Serial Number: 1 (0x1)
    Signature Algorithm: sha256WithRSAEncryption
        Issuer: C=FR, ST=Radius, L=Somewhere, O=Example Inc./emailAddress=admin@example.org, CN=Example Certificate Authority
        Validity
            Not Before: May 31 07:49:56 2018 GMT
            Not After : Jul 30 07:49:56 2018 GMT
        Subject: C=FR, ST=Radius, O=Example Inc., CN=Example Server Certificate/emailAddress=admin@example.org
        Subject Public Key Info:
            Public Key Algorithm: rsaEncryption
                Public-Key: (2048 bit)
                Modulus:
                    00:b9:e3:38:e8:dd:ab:bc:ac:a6:5e:c1:8b:80:81:
                    03:24:ba:0b:f8:90:b1:f4:19:7b:74:95:6b:79:dc:
                    07:44:27:af:72:7a:6e:3e:5e:7f:6e:89:d8:88:5a:
                    79:18:39:1f:a7:3e:fe:91:2f:9a:7f:06:98:bc:8a:
                    15:b8:ad:92:e0:c0:8e:c1:5f:f2:bd:83:d8:2b:f2:
                    2e:84:e6:ae:01:1b:1a:c6:80:ac:05:0f:b2:cb:21:
                    97:ec:b9:f2:73:dd:ef:b4:15:6e:c2:16:f8:db:42:
                    3f:3f:d0:1d:97:6b:3a:07:e0:37:e6:37:ab:ab:f9:
                    4f:d0:eb:48:76:05:be:5d:d0:48:2b:bd:e8:b7:12:
                    08:1a:57:e9:22:40:15:11:90:5c:90:21:8f:5b:4a:
                    ff:a9:83:7e:99:83:69:83:09:25:9e:34:5a:41:26:
                    1e:75:34:83:fd:60:9c:94:b4:d0:a2:52:2d:79:fe:
                    78:a2:bc:d4:21:23:29:f7:b0:2f:3e:a5:95:b2:4c:
                    9b:9a:57:da:62:d6:d8:b1:92:a2:8b:9d:fa:9a:53:
                    5c:f6:d3:33:cd:69:0d:dd:4e:52:97:db:6f:38:10:
                    e2:57:2d:42:13:31:3c:47:59:ed:fe:30:1c:f0:c0:
                    bb:9f:54:3a:b6:44:45:6e:a2:19:fa:df:f6:02:cf:
                    57:e7
                Exponent: 65537 (0x10001)
        X509v3 extensions:
            X509v3 Extended Key Usage: 
                TLS Web Server Authentication
            X509v3 CRL Distribution Points: 

                Full Name:
                  URI:http://www.example.com/example_ca.crl

    Signature Algorithm: sha256WithRSAEncryption
         d4:72:0e:da:16:0e:ae:6e:d0:c5:ac:61:f7:06:47:b7:84:a5:
         bc:63:82:28:65:05:71:9d:18:c8:c9:6d:61:c3:3a:42:ad:53:
         d9:b9:0c:60:e3:e4:76:09:56:4a:c8:90:65:3b:7b:d8:07:56:
         4c:22:aa:c2:2b:08:03:6a:3d:c6:28:2d:0e:3a:14:e0:12:7f:
         84:1d:03:32:87:9b:84:e4:7c:3e:ad:11:10:24:9b:7c:9e:9f:
         b1:5f:49:a0:25:77:fc:b4:2d:ef:aa:71:3a:36:77:3b:75:4c:
         c0:73:c9:88:b7:c2:e8:3b:f8:b0:d9:9b:d8:b0:36:ab:4c:04:
         03:c9:4e:f0:45:7d:d2:26:71:d4:bd:24:03:80:30:87:4c:cf:
         47:b2:1e:fd:44:6c:45:ca:f7:76:a9:64:30:77:e4:c8:32:75:
         95:fa:b4:5c:a0:43:43:5e:4e:96:6b:1e:03:da:d2:83:90:73:
         7b:a0:ed:43:3d:85:32:0d:d9:ae:9a:f2:8e:5e:55:6e:c9:b0:
         3c:96:bb:9d:03:d0:1f:63:a7:65:4a:02:f7:ba:f7:90:e6:f1:
         3f:4d:dc:92:56:3e:9a:8d:c3:00:22:92:64:55:b2:44:23:f2:
         34:f3:2c:a4:fc:29:cf:9f:d1:f4:2b:a1:94:73:97:14:68:88:
         43:1b:b4:57
-----BEGIN CERTIFICATE-----
MIID2jCCAsKgAwIBAgIBATANBgkqhkiG9w0BAQsFADCBkzELMAkGA1UEBhMCRlIx
DzANBgNVBAgMBlJhZGl1czESMBAGA1UEBwwJU29tZXdoZXJlMRUwEwYDVQQKDAxF
eGFtcGxlIEluYy4xIDAeBgkqhkiG9w0BCQEWEWFkbWluQGV4YW1wbGUub3JnMSYw
JAYDVQQDDB1FeGFtcGxlIENlcnRpZmljYXRlIEF1dGhvcml0eTAeFw0xODA1MzEw
NzQ5NTZaFw0xODA3MzAwNzQ5NTZaMHwxCzAJBgNVBAYTAkZSMQ8wDQYDVQQIDAZS
YWRpdXMxFTATBgNVBAoMDEV4YW1wbGUgSW5jLjEjMCEGA1UEAwwaRXhhbXBsZSBT
ZXJ2ZXIgQ2VydGlmaWNhdGUxIDAeBgkqhkiG9w0BCQEWEWFkbWluQGV4YW1wbGUu
b3JnMIIBIjANBgkqhkiG9w0BAQEFAAOCAQ8AMIIBCgKCAQEAueM46N2rvKymXsGL
gIEDJLoL+JCx9Bl7dJVredwHRCevcnpuPl5/bonYiFp5GDkfpz7+kS+afwaYvIoV
uK2S4MCOwV/yvYPYK/IuhOauARsaxoCsBQ+yyyGX7Lnyc93vtBVuwhb420I/P9Ad
l2s6B+A35jerq/lP0OtIdgW+XdBIK73otxIIGlfpIkAVEZBckCGPW0r/qYN+mYNp
gwklnjRaQSYedTSD/WCclLTQolItef54orzUISMp97AvPqWVskybmlfaYtbYsZKi
i536mlNc9tMzzWkN3U5Sl9tvOBDiVy1CEzE8R1nt/jAc8MC7n1Q6tkRFbqIZ+t/2
As9X5wIDAQABo08wTTATBgNVHSUEDDAKBggrBgEFBQcDATA2BgNVHR8ELzAtMCug
KaAnhiVodHRwOi8vd3d3LmV4YW1wbGUuY29tL2V4YW1wbGVfY2EuY3JsMA0GCSqG
SIb3DQEBCwUAA4IBAQDUcg7aFg6ubtDFrGH3Bke3hKW8Y4IoZQVxnRjIyW1hwzpC
rVPZuQxg4+R2CVZKyJBlO3vYB1ZMIqrCKwgDaj3GKC0OOhTgEn+EHQMyh5uE5Hw+
rREQJJt8np+xX0mgJXf8tC3vqnE6Nnc7dUzAc8mIt8LoO/iw2ZvYsDarTAQDyU7w
RX3SJnHUvSQDgDCHTM9Hsh79RGxFyvd2qWQwd+TIMnWV+rRcoENDXk6Wax4D2tKD
kHN7oO1DPYUyDdmumvKOXlVuybA8lrudA9AfY6dlSgL3uveQ5vE/TdySVj6ajcMA
IpJkVbJEI/I08yyk/CnPn9H0K6GUc5cUaIhDG7RX
-----END CERTIFICATE-----
